target datalayout = "e-m:e-p270:32:32-p271:32:32-p272:64:64-i64:64-i128:128-f80:128-n8:16:32:64-S128"
target triple = "x86_64-pc-linux-gnu"

%struct.lean_object = type { i32, i32 }

; Function Attrs: alwaysinline nounwind uwtable
define internal void @lean_dec_ref(ptr noundef %0) #1 {
  %2 = alloca ptr, align 8
  store ptr %0, ptr %2, align 8, !tbaa !4
  %3 = load ptr, ptr %2, align 8, !tbaa !4
  %4 = getelementptr inbounds nuw %struct.lean_object, ptr %3, i32 0, i32 0
  %5 = load i32, ptr %4, align 4, !tbaa !15
  %6 = icmp sgt i32 %5, 1
  %7 = zext i1 %6 to i32
  %8 = sext i32 %7 to i64
  %9 = call i64 @llvm.expect.i64(i64 %8, i64 1)
  %10 = icmp ne i64 %9, 0
  br i1 %10, label %11, label %16

11:                                               ; preds = %1
  %12 = load ptr, ptr %2, align 8, !tbaa !4
  %13 = getelementptr inbounds nuw %struct.lean_object, ptr %12, i32 0, i32 0
  %14 = load i32, ptr %13, align 4, !tbaa !15
  %15 = add i32 %14, -1
  store i32 %15, ptr %13, align 4, !tbaa !15
  br label %24

16:                                               ; preds = %1
  %17 = load ptr, ptr %2, align 8, !tbaa !4
  %18 = getelementptr inbounds nuw %struct.lean_object, ptr %17, i32 0, i32 0
  %19 = load i32, ptr %18, align 4, !tbaa !15
  %20 = icmp ne i32 %19, 0
  br i1 %20, label %21, label %23

21:                                               ; preds = %16
  %22 = load ptr, ptr %2, align 8, !tbaa !4
  call void @lean_dec_ref_cold(ptr noundef %22)
  br label %23

23:                                               ; preds = %21, %16
  br label %24

24:                                               ; preds = %23, %11
  ret void
}

; Function Attrs: alwaysinline nounwind uwtable
define internal zeroext i1 @lean_is_scalar(ptr noundef %0) #1 {
  %2 = alloca ptr, align 8
  store ptr %0, ptr %2, align 8, !tbaa !4
  %3 = load ptr, ptr %2, align 8, !tbaa !4
  %4 = ptrtoint ptr %3 to i64
  %5 = and i64 %4, 1
  %6 = icmp eq i64 %5, 1
  ret i1 %6
}

; Function Attrs: alwaysinline nounwind uwtable
define internal void @lean_dec(ptr noundef %0) #1 {
  %2 = alloca ptr, align 8
  store ptr %0, ptr %2, align 8, !tbaa !4
  %3 = load ptr, ptr %2, align 8, !tbaa !4
  %4 = call zeroext i1 @lean_is_scalar(ptr noundef %3)
  br i1 %4, label %7, label %5

5:                                                ; preds = %1
  %6 = load ptr, ptr %2, align 8, !tbaa !4
  call void @lean_dec_ref(ptr noundef %6)
  br label %7

7:                                                ; preds = %5, %1
  ret void
}

; Function Attrs: inlinehint nounwind uwtable
define internal i64 @lean_unbox(ptr noundef %0) #0 {
  %2 = alloca ptr, align 8
  store ptr %0, ptr %2, align 8, !tbaa !4
  %3 = load ptr, ptr %2, align 8, !tbaa !4
  %4 = ptrtoint ptr %3 to i64
  %5 = lshr i64 %4, 1
  ret i64 %5
}

; Function Attrs: nounwind uwtable
define ptr @l_Lean_Meta_substCore___lambda__20___boxed(ptr noundef %0) #2 {
  %2 = alloca ptr, align 8
  %3 = alloca ptr, align 8
  %4 = alloca ptr, align 8
  %5 = alloca ptr, align 8
  %6 = alloca ptr, align 8
  %7 = alloca ptr, align 8
  %8 = alloca ptr, align 8
  %9 = alloca ptr, align 8
  %10 = alloca ptr, align 8
  %11 = alloca ptr, align 8
  %12 = alloca ptr, align 8
  %13 = alloca ptr, align 8
  %14 = alloca ptr, align 8
  %15 = alloca ptr, align 8
  %16 = alloca ptr, align 8
  %17 = alloca ptr, align 8
  %18 = alloca ptr, align 8
  %19 = alloca ptr, align 8
  %20 = alloca ptr, align 8
  %21 = alloca i8, align 1
  %22 = alloca i8, align 1
  %23 = alloca i8, align 1
  %24 = alloca ptr, align 8
  store ptr %0, ptr %2, align 8, !tbaa !10
  call void @llvm.lifetime.start.p0(i64 8, ptr %3) #7
  %25 = load ptr, ptr %2, align 8, !tbaa !10
  %26 = getelementptr inbounds ptr, ptr %25, i64 0
  %27 = load ptr, ptr %26, align 8, !tbaa !4
  store ptr %27, ptr %3, align 8, !tbaa !4
  call void @llvm.lifetime.start.p0(i64 8, ptr %4) #7
  %28 = load ptr, ptr %2, align 8, !tbaa !10
  %29 = getelementptr inbounds ptr, ptr %28, i64 1
  %30 = load ptr, ptr %29, align 8, !tbaa !4
  store ptr %30, ptr %4, align 8, !tbaa !4
  call void @llvm.lifetime.start.p0(i64 8, ptr %5) #7
  %31 = load ptr, ptr %2, align 8, !tbaa !10
  %32 = getelementptr inbounds ptr, ptr %31, i64 2
  %33 = load ptr, ptr %32, align 8, !tbaa !4
  store ptr %33, ptr %5, align 8, !tbaa !4
  call void @llvm.lifetime.start.p0(i64 8, ptr %6) #7
  %34 = load ptr, ptr %2, align 8, !tbaa !10
  %35 = getelementptr inbounds ptr, ptr %34, i64 3
  %36 = load ptr, ptr %35, align 8, !tbaa !4
  store ptr %36, ptr %6, align 8, !tbaa !4
  call void @llvm.lifetime.start.p0(i64 8, ptr %7) #7
  %37 = load ptr, ptr %2, align 8, !tbaa !10
  %38 = getelementptr inbounds ptr, ptr %37, i64 4
  %39 = load ptr, ptr %38, align 8, !tbaa !4
  store ptr %39, ptr %7, align 8, !tbaa !4
  call void @llvm.lifetime.start.p0(i64 8, ptr %8) #7
  %40 = load ptr, ptr %2, align 8, !tbaa !10
  %41 = getelementptr inbounds ptr, ptr %40, i64 5
  %42 = load ptr, ptr %41, align 8, !tbaa !4
  store ptr %42, ptr %8, align 8, !tbaa !4
  call void @llvm.lifetime.start.p0(i64 8, ptr %9) #7
  %43 = load ptr, ptr %2, align 8, !tbaa !10
  %44 = getelementptr inbounds ptr, ptr %43, i64 6
  %45 = load ptr, ptr %44, align 8, !tbaa !4
  store ptr %45, ptr %9, align 8, !tbaa !4
  call void @llvm.lifetime.start.p0(i64 8, ptr %10) #7
  %46 = load ptr, ptr %2, align 8, !tbaa !10
  %47 = getelementptr inbounds ptr, ptr %46, i64 7
  %48 = load ptr, ptr %47, align 8, !tbaa !4
  store ptr %48, ptr %10, align 8, !tbaa !4
  call void @llvm.lifetime.start.p0(i64 8, ptr %11) #7
  %49 = load ptr, ptr %2, align 8, !tbaa !10
  %50 = getelementptr inbounds ptr, ptr %49, i64 8
  %51 = load ptr, ptr %50, align 8, !tbaa !4
  store ptr %51, ptr %11, align 8, !tbaa !4
  call void @llvm.lifetime.start.p0(i64 8, ptr %12) #7
  %52 = load ptr, ptr %2, align 8, !tbaa !10
  %53 = getelementptr inbounds ptr, ptr %52, i64 9
  %54 = load ptr, ptr %53, align 8, !tbaa !4
  store ptr %54, ptr %12, align 8, !tbaa !4
  call void @llvm.lifetime.start.p0(i64 8, ptr %13) #7
  %55 = load ptr, ptr %2, align 8, !tbaa !10
  %56 = getelementptr inbounds ptr, ptr %55, i64 10
  %57 = load ptr, ptr %56, align 8, !tbaa !4
  store ptr %57, ptr %13, align 8, !tbaa !4
  call void @llvm.lifetime.start.p0(i64 8, ptr %14) #7
  %58 = load ptr, ptr %2, align 8, !tbaa !10
  %59 = getelementptr inbounds ptr, ptr %58, i64 11
  %60 = load ptr, ptr %59, align 8, !tbaa !4
  store ptr %60, ptr %14, align 8, !tbaa !4
  call void @llvm.lifetime.start.p0(i64 8, ptr %15) #7
  %61 = load ptr, ptr %2, align 8, !tbaa !10
  %62 = getelementptr inbounds ptr, ptr %61, i64 12
  %63 = load ptr, ptr %62, align 8, !tbaa !4
  store ptr %63, ptr %15, align 8, !tbaa !4
  call void @llvm.lifetime.start.p0(i64 8, ptr %16) #7
  %64 = load ptr, ptr %2, align 8, !tbaa !10
  %65 = getelementptr inbounds ptr, ptr %64, i64 13
  %66 = load ptr, ptr %65, align 8, !tbaa !4
  store ptr %66, ptr %16, align 8, !tbaa !4
  call void @llvm.lifetime.start.p0(i64 8, ptr %17) #7
  %67 = load ptr, ptr %2, align 8, !tbaa !10
  %68 = getelementptr inbounds ptr, ptr %67, i64 14
  %69 = load ptr, ptr %68, align 8, !tbaa !4
  store ptr %69, ptr %17, align 8, !tbaa !4
  call void @llvm.lifetime.start.p0(i64 8, ptr %18) #7
  %70 = load ptr, ptr %2, align 8, !tbaa !10
  %71 = getelementptr inbounds ptr, ptr %70, i64 15
  %72 = load ptr, ptr %71, align 8, !tbaa !4
  store ptr %72, ptr %18, align 8, !tbaa !4
  call void @llvm.lifetime.start.p0(i64 8, ptr %19) #7
  %73 = load ptr, ptr %2, align 8, !tbaa !10
  %74 = getelementptr inbounds ptr, ptr %73, i64 16
  %75 = load ptr, ptr %74, align 8, !tbaa !4
  store ptr %75, ptr %19, align 8, !tbaa !4
  call void @llvm.lifetime.start.p0(i64 8, ptr %20) #7
  %76 = load ptr, ptr %2, align 8, !tbaa !10
  %77 = getelementptr inbounds ptr, ptr %76, i64 17
  %78 = load ptr, ptr %77, align 8, !tbaa !4
  store ptr %78, ptr %20, align 8, !tbaa !4
  br label %79

79:                                               ; preds = %1
  call void @llvm.lifetime.start.p0(i64 1, ptr %21) #7
  call void @llvm.lifetime.start.p0(i64 1, ptr %22) #7
  call void @llvm.lifetime.start.p0(i64 1, ptr %23) #7
  call void @llvm.lifetime.start.p0(i64 8, ptr %24) #7
  %80 = load ptr, ptr %10, align 8, !tbaa !4
  %81 = call i64 @lean_unbox(ptr noundef %80)
  %82 = trunc i64 %81 to i8
  store i8 %82, ptr %21, align 1, !tbaa !12
  %83 = load ptr, ptr %10, align 8, !tbaa !4
  call void @lean_dec(ptr noundef %83)
  %84 = load ptr, ptr %11, align 8, !tbaa !4
  %85 = call i64 @lean_unbox(ptr noundef %84)
  %86 = trunc i64 %85 to i8
  store i8 %86, ptr %22, align 1, !tbaa !12
  %87 = load ptr, ptr %11, align 8, !tbaa !4
  call void @lean_dec(ptr noundef %87)
  %88 = load ptr, ptr %12, align 8, !tbaa !4
  %89 = call i64 @lean_unbox(ptr noundef %88)
  %90 = trunc i64 %89 to i8
  store i8 %90, ptr %23, align 1, !tbaa !12
  %91 = load ptr, ptr %12, align 8, !tbaa !4
  call void @lean_dec(ptr noundef %91)
  %92 = load ptr, ptr %3, align 8, !tbaa !4
  %93 = load ptr, ptr %4, align 8, !tbaa !4
  %94 = load ptr, ptr %5, align 8, !tbaa !4
  %95 = load ptr, ptr %6, align 8, !tbaa !4
  %96 = load ptr, ptr %7, align 8, !tbaa !4
  %97 = load ptr, ptr %8, align 8, !tbaa !4
  %98 = load ptr, ptr %9, align 8, !tbaa !4
  %99 = load i8, ptr %21, align 1, !tbaa !12
  %100 = load i8, ptr %22, align 1, !tbaa !12
  %101 = load i8, ptr %23, align 1, !tbaa !12
  %102 = load ptr, ptr %13, align 8, !tbaa !4
  %103 = load ptr, ptr %14, align 8, !tbaa !4
  %104 = load ptr, ptr %15, align 8, !tbaa !4
  %105 = load ptr, ptr %16, align 8, !tbaa !4
  %106 = load ptr, ptr %17, align 8, !tbaa !4
  %107 = load ptr, ptr %18, align 8, !tbaa !4
  %108 = load ptr, ptr %19, align 8, !tbaa !4
  %109 = load ptr, ptr %20, align 8, !tbaa !4
  %110 = call ptr @l_Lean_Meta_substCore___lambda__20(ptr noundef %92, ptr noundef %93, ptr noundef %94, ptr noundef %95, ptr noundef %96, ptr noundef %97, ptr noundef %98, i8 noundef zeroext %99, i8 noundef zeroext %100, i8 noundef zeroext %101, ptr noundef %102, ptr noundef %103, ptr noundef %104, ptr noundef %105, ptr noundef %106, ptr noundef %107, ptr noundef %108, ptr noundef %109)
  store ptr %110, ptr %24, align 8, !tbaa !4
  %111 = load ptr, ptr %15, align 8, !tbaa !4
  call void @lean_dec(ptr noundef %111)
  %112 = load ptr, ptr %24, align 8, !tbaa !4
  call void @llvm.lifetime.end.p0(i64 8, ptr %24) #7
  call void @llvm.lifetime.end.p0(i64 1, ptr %23) #7
  call void @llvm.lifetime.end.p0(i64 1, ptr %22) #7
  call void @llvm.lifetime.end.p0(i64 1, ptr %21) #7
  call void @llvm.lifetime.end.p0(i64 8, ptr %20) #7
  call void @llvm.lifetime.end.p0(i64 8, ptr %19) #7
  call void @llvm.lifetime.end.p0(i64 8, ptr %18) #7
  call void @llvm.lifetime.end.p0(i64 8, ptr %17) #7
  call void @llvm.lifetime.end.p0(i64 8, ptr %16) #7
  call void @llvm.lifetime.end.p0(i64 8, ptr %15) #7
  call void @llvm.lifetime.end.p0(i64 8, ptr %14) #7
  call void @llvm.lifetime.end.p0(i64 8, ptr %13) #7
  call void @llvm.lifetime.end.p0(i64 8, ptr %12) #7
  call void @llvm.lifetime.end.p0(i64 8, ptr %11) #7
  call void @llvm.lifetime.end.p0(i64 8, ptr %10) #7
  call void @llvm.lifetime.end.p0(i64 8, ptr %9) #7
  call void @llvm.lifetime.end.p0(i64 8, ptr %8) #7
  call void @llvm.lifetime.end.p0(i64 8, ptr %7) #7
  call void @llvm.lifetime.end.p0(i64 8, ptr %6) #7
  call void @llvm.lifetime.end.p0(i64 8, ptr %5) #7
  call void @llvm.lifetime.end.p0(i64 8, ptr %4) #7
  call void @llvm.lifetime.end.p0(i64 8, ptr %3) #7
  ret ptr %112
}