; Function Attrs: nounwind uwtable
define ptr @l_Lean_Meta_substCore___lambda__20___boxed(ptr noundef readonly captures(none) %0) local_unnamed_addr #0 {
  %2 = load ptr, ptr %0, align 8, !tbaa !11
  %3 = getelementptr inbounds nuw i8, ptr %0, i64 8
  %4 = load ptr, ptr %3, align 8, !tbaa !11
  %5 = getelementptr inbounds nuw i8, ptr %0, i64 16
  %6 = load ptr, ptr %5, align 8, !tbaa !11
  %7 = getelementptr inbounds nuw i8, ptr %0, i64 24
  %8 = load ptr, ptr %7, align 8, !tbaa !11
  %9 = getelementptr inbounds nuw i8, ptr %0, i64 32
  %10 = load ptr, ptr %9, align 8, !tbaa !11
  %11 = getelementptr inbounds nuw i8, ptr %0, i64 40
  %12 = load ptr, ptr %11, align 8, !tbaa !11
  %13 = getelementptr inbounds nuw i8, ptr %0, i64 48
  %14 = load ptr, ptr %13, align 8, !tbaa !11
  %15 = getelementptr inbounds nuw i8, ptr %0, i64 56
  %16 = load ptr, ptr %15, align 8, !tbaa !11
  %17 = getelementptr inbounds nuw i8, ptr %0, i64 64
  %18 = load ptr, ptr %17, align 8, !tbaa !11
  %19 = getelementptr inbounds nuw i8, ptr %0, i64 72
  %20 = load ptr, ptr %19, align 8, !tbaa !11
  %21 = getelementptr inbounds nuw i8, ptr %0, i64 80
  %22 = load ptr, ptr %21, align 8, !tbaa !11
  %23 = getelementptr inbounds nuw i8, ptr %0, i64 88
  %24 = load ptr, ptr %23, align 8, !tbaa !11
  %25 = getelementptr inbounds nuw i8, ptr %0, i64 96
  %26 = load ptr, ptr %25, align 8, !tbaa !11
  %27 = getelementptr inbounds nuw i8, ptr %0, i64 104
  %28 = load ptr, ptr %27, align 8, !tbaa !11
  %29 = getelementptr inbounds nuw i8, ptr %0, i64 112
  %30 = load ptr, ptr %29, align 8, !tbaa !11
  %31 = getelementptr inbounds nuw i8, ptr %0, i64 120
  %32 = load ptr, ptr %31, align 8, !tbaa !11
  %33 = getelementptr inbounds nuw i8, ptr %0, i64 128
  %34 = load ptr, ptr %33, align 8, !tbaa !11
  %35 = getelementptr inbounds nuw i8, ptr %0, i64 136
  %36 = load ptr, ptr %35, align 8, !tbaa !11
  %37 = ptrtoint ptr %16 to i64
  %38 = lshr i64 %37, 1
  %39 = trunc i64 %38 to i8
  %40 = and i64 %37, 1
  %.not = icmp eq i64 %40, 0
  br i1 %.not, label %41, label %lean_dec.exit45

41:                                               ; preds = %1
  %42 = load i32, ptr %16, align 4, !tbaa !5
  %43 = icmp sgt i32 %42, 1
  br i1 %43, label %44, label %46, !prof !10

44:                                               ; preds = %41
  %45 = add nsw i32 %42, -1
  store i32 %45, ptr %16, align 4, !tbaa !5
  br label %lean_dec.exit45

46:                                               ; preds = %41
  %.not.i = icmp eq i32 %42, 0
  br i1 %.not.i, label %lean_dec.exit45, label %47

47:                                               ; preds = %46
  tail call void @lean_dec_ref_cold(ptr noundef nonnull %16) #4
  br label %lean_dec.exit45

lean_dec.exit45:                                  ; preds = %47, %46, %44, %1
  %48 = ptrtoint ptr %18 to i64
  %49 = lshr i64 %48, 1
  %50 = trunc i64 %49 to i8
  %51 = and i64 %48, 1
  %.not52 = icmp eq i64 %51, 0
  br i1 %.not52, label %52, label %lean_dec.exit44

52:                                               ; preds = %lean_dec.exit45
  %53 = load i32, ptr %18, align 4, !tbaa !5
  %54 = icmp sgt i32 %53, 1
  br i1 %54, label %55, label %57, !prof !10

55:                                               ; preds = %52
  %56 = add nsw i32 %53, -1
  store i32 %56, ptr %18, align 4, !tbaa !5
  br label %lean_dec.exit44

57:                                               ; preds = %52
  %.not.i46 = icmp eq i32 %53, 0
  br i1 %.not.i46, label %lean_dec.exit44, label %58

58:                                               ; preds = %57
  tail call void @lean_dec_ref_cold(ptr noundef nonnull %18) #4
  br label %lean_dec.exit44

lean_dec.exit44:                                  ; preds = %58, %57, %55, %lean_dec.exit45
  %59 = ptrtoint ptr %20 to i64
  %60 = lshr i64 %59, 1
  %61 = trunc i64 %60 to i8
  %62 = and i64 %59, 1
  %.not53 = icmp eq i64 %62, 0
  br i1 %.not53, label %63, label %lean_dec.exit43

63:                                               ; preds = %lean_dec.exit44
  %64 = load i32, ptr %20, align 4, !tbaa !5
  %65 = icmp sgt i32 %64, 1
  br i1 %65, label %66, label %68, !prof !10

66:                                               ; preds = %63
  %67 = add nsw i32 %64, -1
  store i32 %67, ptr %20, align 4, !tbaa !5
  br label %lean_dec.exit43

68:                                               ; preds = %63
  %.not.i48 = icmp eq i32 %64, 0
  br i1 %.not.i48, label %lean_dec.exit43, label %69

69:                                               ; preds = %68
  tail call void @lean_dec_ref_cold(ptr noundef nonnull %20) #4
  br label %lean_dec.exit43

lean_dec.exit43:                                  ; preds = %69, %68, %66, %lean_dec.exit44
  %70 = tail call ptr @l_Lean_Meta_substCore___lambda__20(ptr noundef %2, ptr noundef %4, ptr noundef %6, ptr noundef %8, ptr noundef %10, ptr noundef %12, ptr noundef %14, i8 noundef zeroext %39, i8 noundef zeroext %50, i8 noundef zeroext %61, ptr noundef %22, ptr noundef %24, ptr poison, ptr noundef %28, ptr noundef %30, ptr noundef %32, ptr noundef %34, ptr noundef %36)
  %71 = ptrtoint ptr %26 to i64
  %72 = and i64 %71, 1
  %.not54 = icmp eq i64 %72, 0
  br i1 %.not54, label %73, label %lean_dec.exit

73:                                               ; preds = %lean_dec.exit43
  %74 = load i32, ptr %26, align 4, !tbaa !5
  %75 = icmp sgt i32 %74, 1
  br i1 %75, label %76, label %78, !prof !10

76:                                               ; preds = %73
  %77 = add nsw i32 %74, -1
  store i32 %77, ptr %26, align 4, !tbaa !5
  br label %lean_dec.exit

78:                                               ; preds = %73
  %.not.i50 = icmp eq i32 %74, 0
  br i1 %.not.i50, label %lean_dec.exit, label %79

79:                                               ; preds = %78
  tail call void @lean_dec_ref_cold(ptr noundef nonnull %26) #4
  br label %lean_dec.exit

lean_dec.exit:                                    ; preds = %79, %78, %76, %lean_dec.exit43
  ret ptr %70
}